

Microchip Technology PIC18 LITE Macro Assembler V1.32 build 58300 
                                                                                               Sat Sep 06 01:45:19 2014

Microchip Technology Omniscient Code Generator (Lite mode) build 58300
     1                           	processor	18F4550
     2                           	fnconf	rparam,??,?,0
     3                           	opt	pw 120
     4                           	opt	lm
     5                           	psect	smallconst,global,reloc=2,class=SMALLCONST,delta=1
     6                           	psect	cinit,global,reloc=2,class=CODE,delta=1
     7                           	psect	cstackCOMRAM,global,class=COMRAM,space=1,delta=1
     8                           	psect	text0,global,reloc=2,class=CODE,delta=1
     9                           	psect	text1,global,reloc=2,class=CODE,delta=1
    10                           	psect	text2,global,reloc=2,class=CODE,delta=1
    11                           	psect	intsave_regs,global,class=BIGRAM,space=1,delta=1
    12                           	psect	rparam,global,class=COMRAM,space=1,delta=1
    13  0000                     
    14                           	psect	smallconst
    15  000800                     __psmallconst:
    16                           	opt stack 0
    17  000800  00                 	db	0
    18  000801                     main@F5262:
    19                           	opt stack 0
    20  000801  01                 	db	1
    21  000802  4F                 	db	79
    22  000803  12                 	db	18
    23  000804  06                 	db	6
    24  000805  4C                 	db	76
    25  000806  24                 	db	36
    26  000807  20                 	db	32
    27  000808  0F                 	db	15
    28  000809  00                 	db	0
    29  00080A  04                 	db	4
    30  00080B                     __end_ofmain@F5262:
    31                           	opt stack 0
    32  0000                     _LATB	set	3978
    33  0000                     _TRISB	set	3987
    34                           
    35                           ; #config settings
    36  00080B  00                 	db	0	; dummy byte at the end
    37  0000                     
    38                           	psect	cinit
    39  0008D0                     __pcinit:
    40                           	opt stack 0
    41  0008D0                     start_initialization:
    42                           	opt stack 0
    43  0008D0                     __initialization:
    44                           	opt stack 0
    45  0008D0                     end_of_initialization:
    46                           	opt stack 0
    47  0008D0                     __end_of__initialization:
    48                           	opt stack 0
    49  0008D0  0E00               	movlw	low (__Lsmallconst shr (0+16))
    50  0008D2  6EF8               	movwf	tblptru,c
    51  0008D4  0E08               	movlw	high __Lsmallconst
    52  0008D6  6EF7               	movwf	tblptrh,c
    53  0008D8  0100               	movlb	0
    54  0008DA  EF06  F004         	goto	_main	;jump to C main() function
    55                           tblptru	equ	0xFF8
    56                           tblptrh	equ	0xFF7
    57                           
    58                           	psect	cstackCOMRAM
    59  000001                     __pcstackCOMRAM:
    60                           	opt stack 0
    61  000001                     ?___wmul:
    62                           	opt stack 0
    63  000001                     ___wmul@multiplier:
    64                           	opt stack 0
    65                           
    66                           ; 2 bytes @ 0x0
    67  000001                     	ds	2
    68  000003                     ___wmul@multiplicand:
    69                           	opt stack 0
    70                           
    71                           ; 2 bytes @ 0x2
    72  000003                     	ds	2
    73  000005                     ___wmul@product:
    74                           	opt stack 0
    75                           
    76                           ; 2 bytes @ 0x4
    77  000005                     	ds	2
    78  000007                     delay@i:
    79                           	opt stack 0
    80                           
    81                           ; 2 bytes @ 0x6
    82  000007                     	ds	2
    83  000009                     ??_delay:
    84                           
    85                           ; 0 bytes @ 0x8
    86  000009                     	ds	1
    87  00000A                     delay@interval:
    88                           	opt stack 0
    89                           
    90                           ; 2 bytes @ 0x9
    91  00000A                     	ds	2
    92  00000C                     
    93                           ; 2 bytes @ 0xB
    94  00000C                     	ds	2
    95  00000E                     
    96                           ; 3 bytes @ 0xD
    97  00000E                     	ds	3
    98  000011                     main@digits:
    99                           	opt stack 0
   100                           
   101                           ; 10 bytes @ 0x10
   102  000011                     	ds	10
   103  00001B                     main@i:
   104                           	opt stack 0
   105                           
   106                           ; 2 bytes @ 0x1A
   107  00001B                     	ds	2
   108                           tblptru	equ	0xFF8
   109                           tblptrh	equ	0xFF7
   110                           
   111 ;;
   112 ;;Main: autosize = 0, tempsize = 0, incstack = 0, save=0
   113 ;;
   114 ;; *************** function _main *****************
   115 ;; Defined at:
   116 ;;		line 87 in file "main.c"
   117 ;; Parameters:    Size  Location     Type
   118 ;;  argc            2   11[COMRAM] int 
   119 ;;  argv            3   13[COMRAM] PTR PTR unsigned char 
   120 ;; Auto vars:     Size  Location     Type
   121 ;;  digits         10   16[COMRAM] const unsigned char [10]
   122 ;;  i               2   26[COMRAM] int 
   123 ;; Return value:  Size  Location     Type
   124 ;;                  2   11[COMRAM] int 
   125 ;; Registers used:
   126 ;;		wreg, fsr2l, fsr2h, status,2, status,0, tblptrl, tblptrh, tblptru, prodl, prodh, cstack
   127 ;; Tracked objects:
   128 ;;		On entry : 0/0
   129 ;;		On exit  : 0/0
   130 ;;		Unchanged: 0/0
   131 ;; Data sizes:     COMRAM   BANK0   BANK1   BANK2   BANK3   BANK4   BANK5   BANK6   BANK7
   132 ;;      Params:         5       0       0       0       0       0       0       0       0
   133 ;;      Locals:        12       0       0       0       0       0       0       0       0
   134 ;;      Temps:          0       0       0       0       0       0       0       0       0
   135 ;;      Totals:        17       0       0       0       0       0       0       0       0
   136 ;;Total ram usage:       17 bytes
   137 ;; Hardware stack levels required when called:    2
   138 ;; This function calls:
   139 ;;		_delay
   140 ;; This function is called by:
   141 ;;		Startup code after reset
   142 ;; This function uses a non-reentrant model
   143 ;;
   144                           
   145                           	psect	text0
   146  00080C                     __ptext0:
   147                           	opt stack 0
   148  00080C                     _main:
   149                           	opt stack 29
   150                           
   151                           ;main.c: 90: const char digits[10] = {
   152                           ;main.c: 91: 0b0000001,
   153                           ;main.c: 92: 0b1001111,
   154                           ;main.c: 93: 0b0010010,
   155                           ;main.c: 94: 0b0000110,
   156                           ;main.c: 95: 0b1001100,
   157                           ;main.c: 96: 0b0100100,
   158                           ;main.c: 97: 0b0100000,
   159                           ;main.c: 98: 0b0001111,
   160                           ;main.c: 99: 0b0000000,
   161                           ;main.c: 100: 0b0000100,
   162                           ;main.c: 101: };
   163                           
   164                           ;incstack = 0
   165  00080C  0E01               	movlw	low main@F5262
   166  00080E  6EF6               	movwf	tblptrl,c
   167  000810                     	if	0	;There is only one active tblptr byte
   168  000810                     	endif
   169  000810                     	if	0	;There are less than 3 active tblptr bytes
   170  000810                     	endif
   171  000810  EE20  F011         	lfsr	2,main@digits
   172  000814  0E0A               	movlw	10
   173  000816                     u20:
   174  000816  0009               	tblrd		*+
   175  000818  CFF5 FFDE          	movff	tablat,postinc2
   176  00081C  2EE8               	decfsz	wreg,f,c
   177  00081E  D7FB               	bra	u20
   178                           
   179                           ;main.c: 103: TRISB = 0x0;
   180  000820  0E00               	movlw	0
   181  000822  6E93               	movwf	3987,c	;volatile
   182                           
   183                           ;main.c: 104: int i = 0;
   184  000824  0E00               	movlw	0
   185  000826  6E1C               	movwf	main@i+1,c
   186  000828  0E00               	movlw	0
   187  00082A  6E1B               	movwf	main@i,c
   188  00082C                     l619:
   189                           
   190                           ;main.c: 107: LATB = digits[i];
   191  00082C  0E11               	movlw	low main@digits
   192  00082E  241B               	addwf	main@i,w,c
   193  000830  6ED9               	movwf	fsr2l,c
   194  000832  0E00               	movlw	high main@digits
   195  000834  201C               	addwfc	main@i+1,w,c
   196  000836  6EDA               	movwf	fsr2h,c
   197  000838  50DF               	movf	indf2,w,c
   198  00083A  6E8A               	movwf	3978,c	;volatile
   199                           
   200                           ;main.c: 108: delay(1);
   201  00083C  0E00               	movlw	0
   202  00083E  6E08               	movwf	delay@i+1,c
   203  000840  0E01               	movlw	1
   204  000842  6E07               	movwf	delay@i,c
   205  000844  EC2E  F004         	call	_delay	;wreg free
   206                           
   207                           ;main.c: 109: if(i == 9){
   208  000848  501B               	movf	main@i,w,c
   209  00084A  0A09               	xorlw	9
   210  00084C  101C               	iorwf	main@i+1,w,c
   211  00084E  A4D8               	btfss	status,2,c
   212  000850  D002               	goto	l627
   213                           
   214                           ;main.c: 110: i = -1;
   215  000852  681B               	setf	main@i,c
   216  000854  681C               	setf	main@i+1,c
   217  000856                     l627:
   218                           
   219                           ;main.c: 111: }
   220                           ;main.c: 112: i++;
   221  000856  4A1B               	infsnz	main@i,f,c
   222  000858  2A1C               	incf	main@i+1,f,c
   223  00085A  D7E8               	goto	l619
   224  00085C                     __end_of_main:
   225                           	opt stack 0
   226                           tblptru	equ	0xFF8
   227                           tblptrh	equ	0xFF7
   228                           tblptrl	equ	0xFF6
   229                           tablat	equ	0xFF5
   230                           wreg	equ	0xFE8
   231                           indf2	equ	0xFDF
   232                           postinc2	equ	0xFDE
   233                           fsr2h	equ	0xFDA
   234                           fsr2l	equ	0xFD9
   235                           status	equ	0xFD8
   236                           
   237 ;; *************** function _delay *****************
   238 ;; Defined at:
   239 ;;		line 117 in file "main.c"
   240 ;; Parameters:    Size  Location     Type
   241 ;;  i               2    6[COMRAM] int 
   242 ;; Auto vars:     Size  Location     Type
   243 ;;  interval        2    9[COMRAM] int 
   244 ;; Return value:  Size  Location     Type
   245 ;;		None               void
   246 ;; Registers used:
   247 ;;		wreg, status,2, status,0, prodl, prodh, cstack
   248 ;; Tracked objects:
   249 ;;		On entry : 0/0
   250 ;;		On exit  : 0/0
   251 ;;		Unchanged: 0/0
   252 ;; Data sizes:     COMRAM   BANK0   BANK1   BANK2   BANK3   BANK4   BANK5   BANK6   BANK7
   253 ;;      Params:         2       0       0       0       0       0       0       0       0
   254 ;;      Locals:         2       0       0       0       0       0       0       0       0
   255 ;;      Temps:          1       0       0       0       0       0       0       0       0
   256 ;;      Totals:         5       0       0       0       0       0       0       0       0
   257 ;;Total ram usage:        5 bytes
   258 ;; Hardware stack levels used:    1
   259 ;; Hardware stack levels required when called:    1
   260 ;; This function calls:
   261 ;;		___wmul
   262 ;; This function is called by:
   263 ;;		_main
   264 ;; This function uses a non-reentrant model
   265 ;;
   266                           
   267                           	psect	text1
   268  00085C                     __ptext1:
   269                           	opt stack 0
   270  00085C                     _delay:
   271                           	opt stack 29
   272                           
   273                           ;main.c: 118: int interval = i * 100;
   274                           
   275                           ;incstack = 0
   276  00085C  C007  F001         	movff	delay@i,___wmul@multiplier
   277  000860  C008  F002         	movff	delay@i+1,___wmul@multiplier+1
   278  000864  0E00               	movlw	0
   279  000866  6E04               	movwf	___wmul@multiplicand+1,c
   280  000868  0E64               	movlw	100
   281  00086A  6E03               	movwf	___wmul@multiplicand,c
   282  00086C  EC55  F004         	call	___wmul	;wreg free
   283  000870  C001  F00A         	movff	?___wmul,delay@interval
   284  000874  C002  F00B         	movff	?___wmul+1,delay@interval+1
   285                           
   286                           ;main.c: 119: for(i=0;i<interval;i++){
   287  000878  0E00               	movlw	0
   288  00087A  6E08               	movwf	delay@i+1,c
   289  00087C  0E00               	movlw	0
   290  00087E  6E07               	movwf	delay@i,c
   291  000880  D009               	goto	l20
   292  000882                     l609:
   293                           
   294                           ;main.c: 120: _delay((unsigned long)((10)*(1000000/4000.0)));
   295  000882  0E04               	movlw	4
   296  000884  6E09               	movwf	??_delay& (0+255),c
   297  000886  0E3E               	movlw	62
   298  000888                     u47:
   299  000888  2EE8               	decfsz	wreg,f,c
   300  00088A  D7FE               	goto	u47
   301  00088C  2E09               	decfsz	??_delay& (0+255),f,c
   302  00088E  D7FC               	goto	u47
   303  000890  4A07               	infsnz	delay@i,f,c
   304  000892  2A08               	incf	delay@i+1,f,c
   305  000894                     l20:
   306  000894  5008               	movf	delay@i+1,w,c
   307  000896  0A80               	xorlw	128
   308  000898  6E09               	movwf	??_delay& (0+255),c
   309  00089A  500A               	movf	delay@interval,w,c
   310  00089C  5C07               	subwf	delay@i,w,c
   311  00089E  500B               	movf	delay@interval+1,w,c
   312  0008A0  0A80               	xorlw	128
   313  0008A2  5809               	subwfb	??_delay& (0+255),w,c
   314  0008A4  B0D8               	btfsc	status,0,c
   315  0008A6  0012               	return	
   316  0008A8  D7EC               	goto	l609
   317  0008AA                     __end_of_delay:
   318                           	opt stack 0
   319                           tblptru	equ	0xFF8
   320                           tblptrh	equ	0xFF7
   321                           tblptrl	equ	0xFF6
   322                           tablat	equ	0xFF5
   323                           wreg	equ	0xFE8
   324                           indf2	equ	0xFDF
   325                           postinc2	equ	0xFDE
   326                           fsr2h	equ	0xFDA
   327                           fsr2l	equ	0xFD9
   328                           status	equ	0xFD8
   329                           
   330 ;; *************** function ___wmul *****************
   331 ;; Defined at:
   332 ;;		line 15 in file "C:\Program Files (x86)\Microchip\xc8\v1.32\sources\common\Umul16.c"
   333 ;; Parameters:    Size  Location     Type
   334 ;;  multiplier      2    0[COMRAM] unsigned int 
   335 ;;  multiplicand    2    2[COMRAM] unsigned int 
   336 ;; Auto vars:     Size  Location     Type
   337 ;;  product         2    4[COMRAM] unsigned int 
   338 ;; Return value:  Size  Location     Type
   339 ;;                  2    0[COMRAM] unsigned int 
   340 ;; Registers used:
   341 ;;		wreg, status,2, status,0, prodl, prodh
   342 ;; Tracked objects:
   343 ;;		On entry : 0/0
   344 ;;		On exit  : 0/0
   345 ;;		Unchanged: 0/0
   346 ;; Data sizes:     COMRAM   BANK0   BANK1   BANK2   BANK3   BANK4   BANK5   BANK6   BANK7
   347 ;;      Params:         4       0       0       0       0       0       0       0       0
   348 ;;      Locals:         2       0       0       0       0       0       0       0       0
   349 ;;      Temps:          0       0       0       0       0       0       0       0       0
   350 ;;      Totals:         6       0       0       0       0       0       0       0       0
   351 ;;Total ram usage:        6 bytes
   352 ;; Hardware stack levels used:    1
   353 ;; This function calls:
   354 ;;		Nothing
   355 ;; This function is called by:
   356 ;;		_delay
   357 ;; This function uses a non-reentrant model
   358 ;;
   359                           
   360                           	psect	text2
   361  0008AA                     __ptext2:
   362                           	opt stack 0
   363  0008AA                     ___wmul:
   364                           	opt stack 29
   365                           
   366                           ;incstack = 0
   367  0008AA  5001               	movf	___wmul@multiplier,w,c
   368  0008AC  0203               	mulwf	___wmul@multiplicand,c
   369  0008AE  CFF3 F005          	movff	prodl,___wmul@product
   370  0008B2  CFF4 F006          	movff	prodh,___wmul@product+1
   371  0008B6  5001               	movf	___wmul@multiplier,w,c
   372  0008B8  0204               	mulwf	___wmul@multiplicand+1,c
   373  0008BA  50F3               	movf	prodl,w,c
   374  0008BC  2606               	addwf	___wmul@product+1,f,c
   375  0008BE  5002               	movf	___wmul@multiplier+1,w,c
   376  0008C0  0203               	mulwf	___wmul@multiplicand,c
   377  0008C2  50F3               	movf	prodl,w,c
   378  0008C4  2606               	addwf	___wmul@product+1,f,c
   379  0008C6  C005  F001         	movff	___wmul@product,?___wmul
   380  0008CA  C006  F002         	movff	___wmul@product+1,?___wmul+1
   381  0008CE  0012               	return	
   382  0008D0                     __end_of___wmul:
   383                           	opt stack 0
   384                           tblptru	equ	0xFF8
   385                           tblptrh	equ	0xFF7
   386                           tblptrl	equ	0xFF6
   387                           tablat	equ	0xFF5
   388                           prodh	equ	0xFF4
   389                           prodl	equ	0xFF3
   390                           wreg	equ	0xFE8
   391                           indf2	equ	0xFDF
   392                           postinc2	equ	0xFDE
   393                           fsr2h	equ	0xFDA
   394                           fsr2l	equ	0xFD9
   395                           status	equ	0xFD8
   396                           tblptru	equ	0xFF8
   397                           tblptrh	equ	0xFF7
   398                           tblptrl	equ	0xFF6
   399                           tablat	equ	0xFF5
   400                           prodh	equ	0xFF4
   401                           prodl	equ	0xFF3
   402                           wreg	equ	0xFE8
   403                           indf2	equ	0xFDF
   404                           postinc2	equ	0xFDE
   405                           fsr2h	equ	0xFDA
   406                           fsr2l	equ	0xFD9
   407                           status	equ	0xFD8
   408                           
   409                           	psect	rparam
   410  0000                     tblptru	equ	0xFF8
   411                           tblptrh	equ	0xFF7
   412                           tblptrl	equ	0xFF6
   413                           tablat	equ	0xFF5
   414                           prodh	equ	0xFF4
   415                           prodl	equ	0xFF3
   416                           wreg	equ	0xFE8
   417                           indf2	equ	0xFDF
   418                           postinc2	equ	0xFDE
   419                           fsr2h	equ	0xFDA
   420                           fsr2l	equ	0xFD9
   421                           status	equ	0xFD8


Data Sizes:
    Strings     0
    Constant    10
    Data        0
    BSS         0
    Persistent  0
    Stack       0

Auto Spaces:
    Space          Size  Autos    Used
    COMRAM           95     28      28
    BANK0           160      0       0
    BANK1           256      0       0
    BANK2           256      0       0
    BANK3           256      0       0
    BANK4           256      0       0
    BANK5           256      0       0
    BANK6           256      0       0
    BANK7           256      0       0

Pointer List with Targets:

    None.

Critical Paths under _main in COMRAM

    _main->_delay
    _delay->___wmul

Critical Paths under _main in BANK0

    None.

Critical Paths under _main in BANK1

    None.

Critical Paths under _main in BANK2

    None.

Critical Paths under _main in BANK3

    None.

Critical Paths under _main in BANK4

    None.

Critical Paths under _main in BANK5

    None.

Critical Paths under _main in BANK6

    None.

Critical Paths under _main in BANK7

    None.

Call Graph Tables:

 ---------------------------------------------------------------------------------
 (Depth) Function   	        Calls       Base Space   Used Autos Params    Refs
 ---------------------------------------------------------------------------------
 (0) _main                                                17    12      5     297
                                             11 COMRAM    17    12      5
                              _delay
 ---------------------------------------------------------------------------------
 (1) _delay                                                5     3      2     252
                                              6 COMRAM     5     3      2
                             ___wmul
 ---------------------------------------------------------------------------------
 (2) ___wmul                                               6     2      4     173
                                              0 COMRAM     6     2      4
 ---------------------------------------------------------------------------------
 Estimated maximum stack depth 2
 ---------------------------------------------------------------------------------

 Call Graph Graphs:

 _main (ROOT)
   _delay
     ___wmul

 Address spaces:
Name               Size   Autos  Total    Cost      Usage
BITCOMRAM           5F      0       0       0        0.0%
EEDATA             100      0       0       0        0.0%
NULL                 0      0       0       0        0.0%
CODE                 0      0       0       0        0.0%
COMRAM              5F     1C      1C       1       29.5%
STACK                0      0       0       2        0.0%
DATA                 0      0       0       3        0.0%
BITBANK0            A0      0       0       4        0.0%
BANK0               A0      0       0       5        0.0%
BITBANK1           100      0       0       6        0.0%
BANK1              100      0       0       7        0.0%
BITBANK2           100      0       0       8        0.0%
BANK2              100      0       0       9        0.0%
BITBANK3           100      0       0      10        0.0%
BANK3              100      0       0      11        0.0%
BITBANK4           100      0       0      12        0.0%
BANK4              100      0       0      13        0.0%
BITBANK5           100      0       0      14        0.0%
BANK5              100      0       0      15        0.0%
BITBANK6           100      0       0      16        0.0%
BANK6              100      0       0      17        0.0%
BITBANK7           100      0       0      18        0.0%
BANK7              100      0       0      19        0.0%
ABS                  0      0       0      20        0.0%
BIGRAM             7FF      0       0      21        0.0%
BITSFR               0      0       0      40        0.0%
SFR                  0      0       0      40        0.0%


Microchip Technology PIC18 Macro Assembler V1.32 build 58300 
Symbol Table                                                                                   Sat Sep 06 01:45:19 2014

                     l20 0894                       u20 0816                       u47 0888  
    ___wmul@multiplicand 0003              __CFG_BORV$3 000000             __CFG_CP0$OFF 000000  
           __CFG_CP1$OFF 000000             __CFG_CP2$OFF 000000             __CFG_CP3$OFF 000000  
                    l609 0882                      l627 0856                      l619 082C  
           __CFG_CPB$OFF 000000             __CFG_CPD$OFF 000000             __CFG_BOR$OFF 000000  
                    wreg 000FE8             __CFG_LVP$OFF 000000             __CFG_WDT$OFF 000000  
                   _LATB 000F8A                     _main 080C                     indf2 000FDF  
                   fsr2l 000FD9                     prodh 000FF4                     prodl 000FF3  
                   start 0000            __CFG_IESO$OFF 000000            __CFG_PLLDIV$1 000000  
         __CFG_CCP2MX$ON 000000                    ?_main 000C            __CFG_USBDIV$1 000000  
                  _TRISB 000F93            __CFG_PWRT$OFF 000000            __CFG_WRT0$OFF 000000  
          __CFG_WRT1$OFF 000000            __CFG_WRT2$OFF 000000            __CFG_WRT3$OFF 000000  
         __CFG_EBTR0$OFF 000000           __CFG_FCMEN$OFF 000000           __CFG_EBTR1$OFF 000000  
         __CFG_EBTR2$OFF 000000           __CFG_EBTR3$OFF 000000            __CFG_WRTB$OFF 000000  
          __CFG_WRTC$OFF 000000            __CFG_WRTD$OFF 000000           __CFG_EBTRB$OFF 000000  
                  _delay 085C                    main@i 001B                    tablat 000FF5  
                  status 000FD8           __CFG_ICPRT$OFF 000000           __CFG_MCLRE$OFF 000000  
        __initialization 08D0             __end_of_main 085C                   ??_main 0011  
          __activetblptr 000001                   ?_delay 0007           __CFG_XINST$OFF 000000  
                 ___wmul 08AA           __CFG_STVREN$ON 000000                   delay@i 0007  
           __mediumconst 0000                   tblptrh 000FF7                   tblptrl 000FF6  
                 tblptru 000FF8          __CFG_FOSC$EC_EC 000000               __accesstop 0060  
__end_of__initialization 08D0          __CFG_PBADEN$OFF 000000           __pcstackCOMRAM 0001  
          __end_of_delay 08AA                  ??_delay 0009                  ?___wmul 0001  
        __CFG_VREGEN$OFF 000000                  __Hparam 0000                  __Lparam 0000  
        __size_of___wmul 0026             __psmallconst 0800                  __pcinit 08D0  
                __ramtop 0800                  __ptext0 080C                  __ptext1 085C  
                __ptext2 08AA            delay@interval 000A     end_of_initialization 08D0  
      __end_ofmain@F5262 080B                  postinc2 000FDE               main@digits 0011  
         __end_of___wmul 08D0      start_initialization 08D0                 ??___wmul 0005  
       __CFG_LPT1OSC$OFF 000000              __smallconst 0800           __size_of_delay 004E  
         ___wmul@product 0005         __CFG_WDTPS$32768 000000                main@F5262 0801  
      ___wmul@multiplier 0001                 __Hrparam 0000                 __Lrparam 0000  
           __Lsmallconst 0800            __size_of_main 0050                 main@argc 000C  
               main@argv 000E    __CFG_CPUDIV$OSC1_PLL2 000000  
