

Microchip Technology PIC18 LITE Macro Assembler V1.32 build 58300 
                                                                                               Fri Sep 05 00:33:00 2014

Microchip Technology Omniscient Code Generator (Lite mode) build 58300
     1                           	processor	18F4550
     2                           	fnconf	rparam,??,?,0
     3                           	opt	pw 120
     4                           	opt	lm
     5                           	psect	text0,global,reloc=2,class=CODE,delta=1
     6                           	psect	cinit,global,reloc=2,class=CODE,delta=1
     7                           	psect	bssCOMRAM,global,class=COMRAM,space=1,delta=1
     8                           	psect	cstackCOMRAM,global,class=COMRAM,space=1,delta=1
     9                           	psect	text1,global,reloc=2,class=CODE,delta=1
    10                           	psect	text2,global,reloc=2,class=CODE,delta=1
    11                           	psect	text3,global,reloc=2,class=CODE,delta=1
    12                           	psect	text4,global,reloc=2,class=CODE,delta=1
    13                           	psect	text5,global,reloc=2,class=CODE,delta=1
    14                           	psect	text6,global,reloc=2,class=CODE,delta=1
    15                           	psect	text7,global,reloc=2,class=CODE,delta=1
    16                           	psect	text8,global,reloc=2,class=CODE,delta=1
    17                           	psect	text9,global,reloc=2,class=CODE,delta=1
    18                           	psect	text10,global,reloc=2,class=CODE,delta=1
    19                           	psect	text11,global,reloc=2,class=CODE,delta=1
    20                           	psect	text12,global,reloc=2,class=CODE,delta=1
    21                           	psect	text13,global,reloc=2,class=CODE,delta=1
    22                           	psect	text14,global,reloc=2,class=CODE,delta=1
    23                           	psect	text15,global,reloc=2,class=CODE,delta=1
    24                           	psect	intsave_regs,global,class=BIGRAM,space=1,delta=1
    25                           	psect	rparam,global,class=COMRAM,space=1,delta=1
    26  0000                     _PORTAbits	set	3968
    27  0000                     _TRISAbits	set	3986
    28  0000                     _TRISBbits	set	3987
    29  0000                     _LATB0	set	31824
    30  0000                     _LATB1	set	31825
    31  0000                     _LATB2	set	31826
    32  0000                     _LATB3	set	31827
    33  0000                     _LATB4	set	31828
    34  0000                     _LATB5	set	31829
    35  0000                     _LATB6	set	31830
    36                           
    37                           ; 0 bytes @ 0x8
    38 ;;
    39 ;;Main: autosize = 0, tempsize = 0, incstack = 0, save=0
    40 ;;
    41 ;; *************** function _main *****************
    42 ;; Defined at:
    43 ;;		line 101 in file "main.c"
    44 ;; Parameters:    Size  Location     Type
    45 ;;  argc            2    3[COMRAM] int 
    46 ;;  argv            3    5[COMRAM] PTR PTR unsigned char 
    47 ;; Auto vars:     Size  Location     Type
    48 ;;		None
    49 ;; Return value:  Size  Location     Type
    50 ;;		None               void
    51 ;; Registers used:
    52 ;;		wreg, status,2, status,0, cstack
    53 ;; Tracked objects:
    54 ;;		On entry : 0/0
    55 ;;		On exit  : 0/0
    56 ;;		Unchanged: 0/0
    57 ;; Data sizes:     COMRAM   BANK0   BANK1   BANK2   BANK3   BANK4   BANK5   BANK6   BANK7
    58 ;;      Params:         5       0       0       0       0       0       0       0       0
    59 ;;      Locals:         0       0       0       0       0       0       0       0       0
    60 ;;      Temps:          0       0       0       0       0       0       0       0       0
    61 ;;      Totals:         5       0       0       0       0       0       0       0       0
    62 ;;Total ram usage:        5 bytes
    63 ;; Hardware stack levels required when called:    4
    64 ;; This function calls:
    65 ;;		_roadOne
    66 ;;		_roadTwo
    67 ;;		_yallowLight
    68 ;; This function is called by:
    69 ;;		Startup code after reset
    70 ;; This function uses a non-reentrant model
    71 ;;
    72                           
    73                           	psect	text0
    74  007F18                     __ptext0:
    75                           	opt stack 0
    76  007F18                     _main:
    77                           	opt stack 27
    78                           
    79                           ;main.c: 103: TRISBbits.RB0 = 0;
    80                           
    81                           ;incstack = 0
    82  007F18  9093               	bcf	3987,0,c	;volatile
    83                           
    84                           ;main.c: 104: TRISBbits.RB1 = 0;
    85  007F1A  9293               	bcf	3987,1,c	;volatile
    86                           
    87                           ;main.c: 105: TRISBbits.RB2 = 0;
    88  007F1C  9493               	bcf	3987,2,c	;volatile
    89                           
    90                           ;main.c: 107: TRISBbits.RB3 = 0;
    91  007F1E  9693               	bcf	3987,3,c	;volatile
    92                           
    93                           ;main.c: 108: TRISBbits.RB4 = 0;
    94  007F20  9893               	bcf	3987,4,c	;volatile
    95                           
    96                           ;main.c: 109: TRISBbits.RB5 = 0;
    97  007F22  9A93               	bcf	3987,5,c	;volatile
    98                           
    99                           ;main.c: 110: TRISBbits.RB6 = 0;
   100  007F24  9C93               	bcf	3987,6,c	;volatile
   101                           
   102                           ;main.c: 112: TRISAbits.RA0 = 1;
   103  007F26  8092               	bsf	3986,0,c	;volatile
   104                           
   105                           ;main.c: 113: TRISAbits.RA1 = 0;
   106  007F28  9292               	bcf	3986,1,c	;volatile
   107  007F2A                     l761:
   108                           
   109                           ;main.c: 116: {
   110                           ;main.c: 117: yallowLight();
   111  007F2A  EC7E  F03F         	call	_yallowLight	;wreg free
   112                           
   113                           ;main.c: 119: roadOne();
   114  007F2E  EC6F  F03F         	call	_roadOne	;wreg free
   115                           
   116                           ;main.c: 120: yallowLight();
   117  007F32  EC7E  F03F         	call	_yallowLight	;wreg free
   118                           
   119                           ;main.c: 121: roadTwo();
   120  007F36  EC6A  F03F         	call	_roadTwo	;wreg free
   121  007F3A  D7F7               	goto	l761
   122  007F3C                     __end_of_main:
   123                           	opt stack 0
   124                           
   125                           	psect	cinit
   126  007EF2                     __pcinit:
   127                           	opt stack 0
   128  007EF2                     start_initialization:
   129                           	opt stack 0
   130  007EF2                     __initialization:
   131                           	opt stack 0
   132                           
   133                           ; Clear objects allocated to COMRAM (2 bytes)
   134  007EF2  6A0A               	clrf	(__pbssCOMRAM+1)& (0+255),c
   135  007EF4  6A09               	clrf	__pbssCOMRAM& (0+255),c
   136  007EF6                     end_of_initialization:
   137                           	opt stack 0
   138  007EF6                     __end_of__initialization:
   139                           	opt stack 0
   140  007EF6  0100               	movlb	0
   141  007EF8  EF8C  F03F         	goto	_main	;jump to C main() function
   142                           
   143                           	psect	bssCOMRAM
   144  000009                     __pbssCOMRAM:
   145                           	opt stack 0
   146  000009                     _i:
   147                           	opt stack 0
   148  000009                     	ds	2
   149                           
   150                           	psect	cstackCOMRAM
   151  000001                     __pcstackCOMRAM:
   152                           	opt stack 0
   153  000001                     Delay1Second@interval:
   154                           	opt stack 0
   155                           
   156                           ; 2 bytes @ 0x0
   157  000001                     	ds	2
   158  000003                     ??_Delay1Second:
   159                           
   160                           ; 0 bytes @ 0x2
   161  000003                     	ds	1
   162  000004                     
   163                           ; 2 bytes @ 0x3
   164  000004                     	ds	2
   165  000006                     
   166                           ; 3 bytes @ 0x5
   167  000006                     	ds	3
   168  000009                     
   169 ;; *************** function _yallowLight *****************
   170 ;; Defined at:
   171 ;;		line 126 in file "main.c"
   172 ;; Parameters:    Size  Location     Type
   173 ;;		None
   174 ;; Auto vars:     Size  Location     Type
   175 ;;		None
   176 ;; Return value:  Size  Location     Type
   177 ;;		None               void
   178 ;; Registers used:
   179 ;;		wreg, status,2, status,0, cstack
   180 ;; Tracked objects:
   181 ;;		On entry : 0/0
   182 ;;		On exit  : 0/0
   183 ;;		Unchanged: 0/0
   184 ;; Data sizes:     COMRAM   BANK0   BANK1   BANK2   BANK3   BANK4   BANK5   BANK6   BANK7
   185 ;;      Params:         0       0       0       0       0       0       0       0       0
   186 ;;      Locals:         0       0       0       0       0       0       0       0       0
   187 ;;      Temps:          0       0       0       0       0       0       0       0       0
   188 ;;      Totals:         0       0       0       0       0       0       0       0       0
   189 ;;Total ram usage:        0 bytes
   190 ;; Hardware stack levels used:    1
   191 ;; Hardware stack levels required when called:    3
   192 ;; This function calls:
   193 ;;		_Delay1Second
   194 ;;		_roadOne
   195 ;;		_zero
   196 ;; This function is called by:
   197 ;;		_main
   198 ;; This function uses a non-reentrant model
   199 ;;
   200                           
   201                           	psect	text1
   202  007EFC                     __ptext1:
   203                           	opt stack 0
   204  007EFC                     _yallowLight:
   205                           	opt stack 27
   206                           
   207                           ;main.c: 127: zero();
   208                           
   209                           ;incstack = 0
   210  007EFC  EC74  F03F         	call	_zero	;wreg free
   211                           
   212                           ;main.c: 128: if(PORTAbits.RA0){
   213  007F00  B080               	btfsc	3968,0,c	;volatile
   214                           
   215                           ;main.c: 129: roadOne();
   216  007F02  EC6F  F03F         	call	_roadOne	;wreg free
   217                           
   218                           ;main.c: 130: }
   219                           ;main.c: 131: LATB2 = 1;
   220  007F06  848A               	bsf	3978,2,c	;volatile
   221                           
   222                           ;main.c: 132: Delay1Second(300);
   223  007F08  0E01               	movlw	1
   224  007F0A  6E02               	movwf	Delay1Second@interval+1,c
   225  007F0C  0E2C               	movlw	44
   226  007F0E  6E01               	movwf	Delay1Second@interval,c
   227  007F10  EC9E  F03F         	call	_Delay1Second	;wreg free
   228                           
   229                           ;main.c: 133: LATB2 = 0;
   230  007F14  948A               	bcf	3978,2,c	;volatile
   231  007F16  0012               	return	
   232  007F18                     __end_of_yallowLight:
   233                           	opt stack 0
   234                           
   235 ;; *************** function _zero *****************
   236 ;; Defined at:
   237 ;;		line 233 in file "main.c"
   238 ;; Parameters:    Size  Location     Type
   239 ;;		None
   240 ;; Auto vars:     Size  Location     Type
   241 ;;		None
   242 ;; Return value:  Size  Location     Type
   243 ;;		None               void
   244 ;; Registers used:
   245 ;;		None
   246 ;; Tracked objects:
   247 ;;		On entry : 0/0
   248 ;;		On exit  : 0/0
   249 ;;		Unchanged: 0/0
   250 ;; Data sizes:     COMRAM   BANK0   BANK1   BANK2   BANK3   BANK4   BANK5   BANK6   BANK7
   251 ;;      Params:         0       0       0       0       0       0       0       0       0
   252 ;;      Locals:         0       0       0       0       0       0       0       0       0
   253 ;;      Temps:          0       0       0       0       0       0       0       0       0
   254 ;;      Totals:         0       0       0       0       0       0       0       0       0
   255 ;;Total ram usage:        0 bytes
   256 ;; Hardware stack levels used:    1
   257 ;; This function calls:
   258 ;;		Nothing
   259 ;; This function is called by:
   260 ;;		_yallowLight
   261 ;; This function uses a non-reentrant model
   262 ;;
   263                           
   264                           	psect	text2
   265  007EE8                     __ptext2:
   266                           	opt stack 0
   267  007EE8                     _zero:
   268                           	opt stack 29
   269                           
   270                           ;main.c: 234: LATB3 = 0;
   271                           
   272                           ;incstack = 0
   273  007EE8  968A               	bcf	3978,3,c	;volatile
   274                           
   275                           ;main.c: 235: LATB4 = 0;
   276  007EEA  988A               	bcf	3978,4,c	;volatile
   277                           
   278                           ;main.c: 236: LATB5 = 0;
   279  007EEC  9A8A               	bcf	3978,5,c	;volatile
   280                           
   281                           ;main.c: 237: LATB6 = 0;
   282  007EEE  9C8A               	bcf	3978,6,c	;volatile
   283  007EF0  0012               	return	
   284  007EF2                     __end_of_zero:
   285                           	opt stack 0
   286                           
   287 ;; *************** function _roadOne *****************
   288 ;; Defined at:
   289 ;;		line 136 in file "main.c"
   290 ;; Parameters:    Size  Location     Type
   291 ;;		None
   292 ;; Auto vars:     Size  Location     Type
   293 ;;		None
   294 ;; Return value:  Size  Location     Type
   295 ;;		None               void
   296 ;; Registers used:
   297 ;;		wreg, status,2, status,0, cstack
   298 ;; Tracked objects:
   299 ;;		On entry : 0/0
   300 ;;		On exit  : 0/0
   301 ;;		Unchanged: 0/0
   302 ;; Data sizes:     COMRAM   BANK0   BANK1   BANK2   BANK3   BANK4   BANK5   BANK6   BANK7
   303 ;;      Params:         0       0       0       0       0       0       0       0       0
   304 ;;      Locals:         0       0       0       0       0       0       0       0       0
   305 ;;      Temps:          0       0       0       0       0       0       0       0       0
   306 ;;      Totals:         0       0       0       0       0       0       0       0       0
   307 ;;Total ram usage:        0 bytes
   308 ;; Hardware stack levels used:    1
   309 ;; Hardware stack levels required when called:    2
   310 ;; This function calls:
   311 ;;		_oneToNine
   312 ;; This function is called by:
   313 ;;		_main
   314 ;;		_yallowLight
   315 ;; This function uses a non-reentrant model
   316 ;;
   317                           
   318                           	psect	text3
   319  007EDE                     __ptext3:
   320                           	opt stack 0
   321  007EDE                     _roadOne:
   322                           	opt stack 27
   323                           
   324                           ;main.c: 137: LATB0 = 1;
   325                           
   326                           ;incstack = 0
   327  007EDE  808A               	bsf	3978,0,c	;volatile
   328                           
   329                           ;main.c: 138: oneToNine();
   330  007EE0  ECB7  F03F         	call	_oneToNine	;wreg free
   331                           
   332                           ;main.c: 139: LATB0 = 0;
   333  007EE4  908A               	bcf	3978,0,c	;volatile
   334  007EE6  0012               	return	
   335  007EE8                     __end_of_roadOne:
   336                           	opt stack 0
   337                           
   338 ;; *************** function _roadTwo *****************
   339 ;; Defined at:
   340 ;;		line 142 in file "main.c"
   341 ;; Parameters:    Size  Location     Type
   342 ;;		None
   343 ;; Auto vars:     Size  Location     Type
   344 ;;		None
   345 ;; Return value:  Size  Location     Type
   346 ;;		None               void
   347 ;; Registers used:
   348 ;;		wreg, status,2, status,0, cstack
   349 ;; Tracked objects:
   350 ;;		On entry : 0/0
   351 ;;		On exit  : 0/0
   352 ;;		Unchanged: 0/0
   353 ;; Data sizes:     COMRAM   BANK0   BANK1   BANK2   BANK3   BANK4   BANK5   BANK6   BANK7
   354 ;;      Params:         0       0       0       0       0       0       0       0       0
   355 ;;      Locals:         0       0       0       0       0       0       0       0       0
   356 ;;      Temps:          0       0       0       0       0       0       0       0       0
   357 ;;      Totals:         0       0       0       0       0       0       0       0       0
   358 ;;Total ram usage:        0 bytes
   359 ;; Hardware stack levels used:    1
   360 ;; Hardware stack levels required when called:    2
   361 ;; This function calls:
   362 ;;		_oneToNine
   363 ;; This function is called by:
   364 ;;		_main
   365 ;; This function uses a non-reentrant model
   366 ;;
   367                           
   368                           	psect	text4
   369  007ED4                     __ptext4:
   370                           	opt stack 0
   371  007ED4                     _roadTwo:
   372                           	opt stack 28
   373                           
   374                           ;main.c: 143: LATB1 = 1;
   375                           
   376                           ;incstack = 0
   377  007ED4  828A               	bsf	3978,1,c	;volatile
   378                           
   379                           ;main.c: 144: oneToNine();
   380  007ED6  ECB7  F03F         	call	_oneToNine	;wreg free
   381                           
   382                           ;main.c: 145: LATB1 = 0;
   383  007EDA  928A               	bcf	3978,1,c	;volatile
   384  007EDC  0012               	return	
   385  007EDE                     __end_of_roadTwo:
   386                           	opt stack 0
   387                           
   388 ;; *************** function _oneToNine *****************
   389 ;; Defined at:
   390 ;;		line 149 in file "main.c"
   391 ;; Parameters:    Size  Location     Type
   392 ;;		None
   393 ;; Auto vars:     Size  Location     Type
   394 ;;		None
   395 ;; Return value:  Size  Location     Type
   396 ;;		None               void
   397 ;; Registers used:
   398 ;;		wreg, status,2, status,0, cstack
   399 ;; Tracked objects:
   400 ;;		On entry : 0/0
   401 ;;		On exit  : 0/0
   402 ;;		Unchanged: 0/0
   403 ;; Data sizes:     COMRAM   BANK0   BANK1   BANK2   BANK3   BANK4   BANK5   BANK6   BANK7
   404 ;;      Params:         0       0       0       0       0       0       0       0       0
   405 ;;      Locals:         0       0       0       0       0       0       0       0       0
   406 ;;      Temps:          0       0       0       0       0       0       0       0       0
   407 ;;      Totals:         0       0       0       0       0       0       0       0       0
   408 ;;Total ram usage:        0 bytes
   409 ;; Hardware stack levels used:    1
   410 ;; Hardware stack levels required when called:    1
   411 ;; This function calls:
   412 ;;		_Delay1Second
   413 ;;		_eight
   414 ;;		_five
   415 ;;		_four
   416 ;;		_nine
   417 ;;		_one
   418 ;;		_seven
   419 ;;		_six
   420 ;;		_three
   421 ;;		_two
   422 ;; This function is called by:
   423 ;;		_roadOne
   424 ;;		_roadTwo
   425 ;; This function uses a non-reentrant model
   426 ;;
   427                           
   428                           	psect	text5
   429  007F6E                     __ptext5:
   430                           	opt stack 0
   431  007F6E                     _oneToNine:
   432                           	opt stack 27
   433                           
   434                           ;main.c: 150: one();
   435                           
   436                           ;incstack = 0
   437  007F6E  EC51  F03F         	call	_one	;wreg free
   438                           
   439                           ;main.c: 151: Delay1Second(100);
   440  007F72  0E00               	movlw	0
   441  007F74  6E02               	movwf	Delay1Second@interval+1,c
   442  007F76  0E64               	movlw	100
   443  007F78  6E01               	movwf	Delay1Second@interval,c
   444  007F7A  EC9E  F03F         	call	_Delay1Second	;wreg free
   445                           
   446                           ;main.c: 152: two();
   447  007F7E  EC65  F03F         	call	_two	;wreg free
   448                           
   449                           ;main.c: 153: Delay1Second(100);
   450  007F82  0E00               	movlw	0
   451  007F84  6E02               	movwf	Delay1Second@interval+1,c
   452  007F86  0E64               	movlw	100
   453  007F88  6E01               	movwf	Delay1Second@interval,c
   454  007F8A  EC9E  F03F         	call	_Delay1Second	;wreg free
   455                           
   456                           ;main.c: 154: three();
   457  007F8E  EC60  F03F         	call	_three	;wreg free
   458                           
   459                           ;main.c: 155: Delay1Second(100);
   460  007F92  0E00               	movlw	0
   461  007F94  6E02               	movwf	Delay1Second@interval+1,c
   462  007F96  0E64               	movlw	100
   463  007F98  6E01               	movwf	Delay1Second@interval,c
   464  007F9A  EC9E  F03F         	call	_Delay1Second	;wreg free
   465                           
   466                           ;main.c: 156: four();
   467  007F9E  EC47  F03F         	call	_four	;wreg free
   468                           
   469                           ;main.c: 157: Delay1Second(100);
   470  007FA2  0E00               	movlw	0
   471  007FA4  6E02               	movwf	Delay1Second@interval+1,c
   472  007FA6  0E64               	movlw	100
   473  007FA8  6E01               	movwf	Delay1Second@interval,c
   474  007FAA  EC9E  F03F         	call	_Delay1Second	;wreg free
   475                           
   476                           ;main.c: 158: five();
   477  007FAE  EC42  F03F         	call	_five	;wreg free
   478                           
   479                           ;main.c: 159: Delay1Second(100);
   480  007FB2  0E00               	movlw	0
   481  007FB4  6E02               	movwf	Delay1Second@interval+1,c
   482  007FB6  0E64               	movlw	100
   483  007FB8  6E01               	movwf	Delay1Second@interval,c
   484  007FBA  EC9E  F03F         	call	_Delay1Second	;wreg free
   485                           
   486                           ;main.c: 160: six();
   487  007FBE  EC5B  F03F         	call	_six	;wreg free
   488                           
   489                           ;main.c: 161: Delay1Second(100);
   490  007FC2  0E00               	movlw	0
   491  007FC4  6E02               	movwf	Delay1Second@interval+1,c
   492  007FC6  0E64               	movlw	100
   493  007FC8  6E01               	movwf	Delay1Second@interval,c
   494  007FCA  EC9E  F03F         	call	_Delay1Second	;wreg free
   495                           
   496                           ;main.c: 162: seven();
   497  007FCE  EC56  F03F         	call	_seven	;wreg free
   498                           
   499                           ;main.c: 163: Delay1Second(100);
   500  007FD2  0E00               	movlw	0
   501  007FD4  6E02               	movwf	Delay1Second@interval+1,c
   502  007FD6  0E64               	movlw	100
   503  007FD8  6E01               	movwf	Delay1Second@interval,c
   504  007FDA  EC9E  F03F         	call	_Delay1Second	;wreg free
   505                           
   506                           ;main.c: 164: eight();
   507  007FDE  EC3D  F03F         	call	_eight	;wreg free
   508                           
   509                           ;main.c: 165: Delay1Second(100);
   510  007FE2  0E00               	movlw	0
   511  007FE4  6E02               	movwf	Delay1Second@interval+1,c
   512  007FE6  0E64               	movlw	100
   513  007FE8  6E01               	movwf	Delay1Second@interval,c
   514  007FEA  EC9E  F03F         	call	_Delay1Second	;wreg free
   515                           
   516                           ;main.c: 166: nine();
   517  007FEE  EC4C  F03F         	call	_nine	;wreg free
   518                           
   519                           ;main.c: 167: Delay1Second(100);
   520  007FF2  0E00               	movlw	0
   521  007FF4  6E02               	movwf	Delay1Second@interval+1,c
   522  007FF6  0E64               	movlw	100
   523  007FF8  6E01               	movwf	Delay1Second@interval,c
   524  007FFA  EC9E  F03F         	call	_Delay1Second	;wreg free
   525  007FFE  0012               	return	
   526  008000                     __end_of_oneToNine:
   527                           	opt stack 0
   528                           
   529 ;; *************** function _two *****************
   530 ;; Defined at:
   531 ;;		line 177 in file "main.c"
   532 ;; Parameters:    Size  Location     Type
   533 ;;		None
   534 ;; Auto vars:     Size  Location     Type
   535 ;;		None
   536 ;; Return value:  Size  Location     Type
   537 ;;		None               void
   538 ;; Registers used:
   539 ;;		None
   540 ;; Tracked objects:
   541 ;;		On entry : 0/0
   542 ;;		On exit  : 0/0
   543 ;;		Unchanged: 0/0
   544 ;; Data sizes:     COMRAM   BANK0   BANK1   BANK2   BANK3   BANK4   BANK5   BANK6   BANK7
   545 ;;      Params:         0       0       0       0       0       0       0       0       0
   546 ;;      Locals:         0       0       0       0       0       0       0       0       0
   547 ;;      Temps:          0       0       0       0       0       0       0       0       0
   548 ;;      Totals:         0       0       0       0       0       0       0       0       0
   549 ;;Total ram usage:        0 bytes
   550 ;; Hardware stack levels used:    1
   551 ;; This function calls:
   552 ;;		Nothing
   553 ;; This function is called by:
   554 ;;		_oneToNine
   555 ;; This function uses a non-reentrant model
   556 ;;
   557                           
   558                           	psect	text6
   559  007ECA                     __ptext6:
   560                           	opt stack 0
   561  007ECA                     _two:
   562                           	opt stack 27
   563                           
   564                           ;main.c: 178: LATB3 = 0;
   565                           
   566                           ;incstack = 0
   567  007ECA  968A               	bcf	3978,3,c	;volatile
   568                           
   569                           ;main.c: 179: LATB4 = 1;
   570  007ECC  888A               	bsf	3978,4,c	;volatile
   571                           
   572                           ;main.c: 180: LATB5 = 0;
   573  007ECE  9A8A               	bcf	3978,5,c	;volatile
   574                           
   575                           ;main.c: 181: LATB6 = 0;
   576  007ED0  9C8A               	bcf	3978,6,c	;volatile
   577  007ED2  0012               	return	
   578  007ED4                     __end_of_two:
   579                           	opt stack 0
   580                           
   581 ;; *************** function _three *****************
   582 ;; Defined at:
   583 ;;		line 184 in file "main.c"
   584 ;; Parameters:    Size  Location     Type
   585 ;;		None
   586 ;; Auto vars:     Size  Location     Type
   587 ;;		None
   588 ;; Return value:  Size  Location     Type
   589 ;;		None               void
   590 ;; Registers used:
   591 ;;		None
   592 ;; Tracked objects:
   593 ;;		On entry : 0/0
   594 ;;		On exit  : 0/0
   595 ;;		Unchanged: 0/0
   596 ;; Data sizes:     COMRAM   BANK0   BANK1   BANK2   BANK3   BANK4   BANK5   BANK6   BANK7
   597 ;;      Params:         0       0       0       0       0       0       0       0       0
   598 ;;      Locals:         0       0       0       0       0       0       0       0       0
   599 ;;      Temps:          0       0       0       0       0       0       0       0       0
   600 ;;      Totals:         0       0       0       0       0       0       0       0       0
   601 ;;Total ram usage:        0 bytes
   602 ;; Hardware stack levels used:    1
   603 ;; This function calls:
   604 ;;		Nothing
   605 ;; This function is called by:
   606 ;;		_oneToNine
   607 ;; This function uses a non-reentrant model
   608 ;;
   609                           
   610                           	psect	text7
   611  007EC0                     __ptext7:
   612                           	opt stack 0
   613  007EC0                     _three:
   614                           	opt stack 27
   615                           
   616                           ;main.c: 185: LATB3 = 1;
   617                           
   618                           ;incstack = 0
   619  007EC0  868A               	bsf	3978,3,c	;volatile
   620                           
   621                           ;main.c: 186: LATB4 = 1;
   622  007EC2  888A               	bsf	3978,4,c	;volatile
   623                           
   624                           ;main.c: 187: LATB5 = 0;
   625  007EC4  9A8A               	bcf	3978,5,c	;volatile
   626                           
   627                           ;main.c: 188: LATB6 = 0;
   628  007EC6  9C8A               	bcf	3978,6,c	;volatile
   629  007EC8  0012               	return	
   630  007ECA                     __end_of_three:
   631                           	opt stack 0
   632                           
   633 ;; *************** function _six *****************
   634 ;; Defined at:
   635 ;;		line 205 in file "main.c"
   636 ;; Parameters:    Size  Location     Type
   637 ;;		None
   638 ;; Auto vars:     Size  Location     Type
   639 ;;		None
   640 ;; Return value:  Size  Location     Type
   641 ;;		None               void
   642 ;; Registers used:
   643 ;;		None
   644 ;; Tracked objects:
   645 ;;		On entry : 0/0
   646 ;;		On exit  : 0/0
   647 ;;		Unchanged: 0/0
   648 ;; Data sizes:     COMRAM   BANK0   BANK1   BANK2   BANK3   BANK4   BANK5   BANK6   BANK7
   649 ;;      Params:         0       0       0       0       0       0       0       0       0
   650 ;;      Locals:         0       0       0       0       0       0       0       0       0
   651 ;;      Temps:          0       0       0       0       0       0       0       0       0
   652 ;;      Totals:         0       0       0       0       0       0       0       0       0
   653 ;;Total ram usage:        0 bytes
   654 ;; Hardware stack levels used:    1
   655 ;; This function calls:
   656 ;;		Nothing
   657 ;; This function is called by:
   658 ;;		_oneToNine
   659 ;; This function uses a non-reentrant model
   660 ;;
   661                           
   662                           	psect	text8
   663  007EB6                     __ptext8:
   664                           	opt stack 0
   665  007EB6                     _six:
   666                           	opt stack 27
   667                           
   668                           ;main.c: 206: LATB3 = 0;
   669                           
   670                           ;incstack = 0
   671  007EB6  968A               	bcf	3978,3,c	;volatile
   672                           
   673                           ;main.c: 207: LATB4 = 1;
   674  007EB8  888A               	bsf	3978,4,c	;volatile
   675                           
   676                           ;main.c: 208: LATB5 = 1;
   677  007EBA  8A8A               	bsf	3978,5,c	;volatile
   678                           
   679                           ;main.c: 209: LATB6 = 0;
   680  007EBC  9C8A               	bcf	3978,6,c	;volatile
   681  007EBE  0012               	return	
   682  007EC0                     __end_of_six:
   683                           	opt stack 0
   684                           
   685 ;; *************** function _seven *****************
   686 ;; Defined at:
   687 ;;		line 212 in file "main.c"
   688 ;; Parameters:    Size  Location     Type
   689 ;;		None
   690 ;; Auto vars:     Size  Location     Type
   691 ;;		None
   692 ;; Return value:  Size  Location     Type
   693 ;;		None               void
   694 ;; Registers used:
   695 ;;		None
   696 ;; Tracked objects:
   697 ;;		On entry : 0/0
   698 ;;		On exit  : 0/0
   699 ;;		Unchanged: 0/0
   700 ;; Data sizes:     COMRAM   BANK0   BANK1   BANK2   BANK3   BANK4   BANK5   BANK6   BANK7
   701 ;;      Params:         0       0       0       0       0       0       0       0       0
   702 ;;      Locals:         0       0       0       0       0       0       0       0       0
   703 ;;      Temps:          0       0       0       0       0       0       0       0       0
   704 ;;      Totals:         0       0       0       0       0       0       0       0       0
   705 ;;Total ram usage:        0 bytes
   706 ;; Hardware stack levels used:    1
   707 ;; This function calls:
   708 ;;		Nothing
   709 ;; This function is called by:
   710 ;;		_oneToNine
   711 ;; This function uses a non-reentrant model
   712 ;;
   713                           
   714                           	psect	text9
   715  007EAC                     __ptext9:
   716                           	opt stack 0
   717  007EAC                     _seven:
   718                           	opt stack 27
   719                           
   720                           ;main.c: 213: LATB3 = 1;
   721                           
   722                           ;incstack = 0
   723  007EAC  868A               	bsf	3978,3,c	;volatile
   724                           
   725                           ;main.c: 214: LATB4 = 1;
   726  007EAE  888A               	bsf	3978,4,c	;volatile
   727                           
   728                           ;main.c: 215: LATB5 = 1;
   729  007EB0  8A8A               	bsf	3978,5,c	;volatile
   730                           
   731                           ;main.c: 216: LATB6 = 0;
   732  007EB2  9C8A               	bcf	3978,6,c	;volatile
   733  007EB4  0012               	return	
   734  007EB6                     __end_of_seven:
   735                           	opt stack 0
   736                           
   737 ;; *************** function _one *****************
   738 ;; Defined at:
   739 ;;		line 170 in file "main.c"
   740 ;; Parameters:    Size  Location     Type
   741 ;;		None
   742 ;; Auto vars:     Size  Location     Type
   743 ;;		None
   744 ;; Return value:  Size  Location     Type
   745 ;;		None               void
   746 ;; Registers used:
   747 ;;		None
   748 ;; Tracked objects:
   749 ;;		On entry : 0/0
   750 ;;		On exit  : 0/0
   751 ;;		Unchanged: 0/0
   752 ;; Data sizes:     COMRAM   BANK0   BANK1   BANK2   BANK3   BANK4   BANK5   BANK6   BANK7
   753 ;;      Params:         0       0       0       0       0       0       0       0       0
   754 ;;      Locals:         0       0       0       0       0       0       0       0       0
   755 ;;      Temps:          0       0       0       0       0       0       0       0       0
   756 ;;      Totals:         0       0       0       0       0       0       0       0       0
   757 ;;Total ram usage:        0 bytes
   758 ;; Hardware stack levels used:    1
   759 ;; This function calls:
   760 ;;		Nothing
   761 ;; This function is called by:
   762 ;;		_oneToNine
   763 ;; This function uses a non-reentrant model
   764 ;;
   765                           
   766                           	psect	text10
   767  007EA2                     __ptext10:
   768                           	opt stack 0
   769  007EA2                     _one:
   770                           	opt stack 27
   771                           
   772                           ;main.c: 171: LATB3 = 1;
   773                           
   774                           ;incstack = 0
   775  007EA2  868A               	bsf	3978,3,c	;volatile
   776                           
   777                           ;main.c: 172: LATB4 = 0;
   778  007EA4  988A               	bcf	3978,4,c	;volatile
   779                           
   780                           ;main.c: 173: LATB5 = 0;
   781  007EA6  9A8A               	bcf	3978,5,c	;volatile
   782                           
   783                           ;main.c: 174: LATB6 = 0;
   784  007EA8  9C8A               	bcf	3978,6,c	;volatile
   785  007EAA  0012               	return	
   786  007EAC                     __end_of_one:
   787                           	opt stack 0
   788                           
   789 ;; *************** function _nine *****************
   790 ;; Defined at:
   791 ;;		line 226 in file "main.c"
   792 ;; Parameters:    Size  Location     Type
   793 ;;		None
   794 ;; Auto vars:     Size  Location     Type
   795 ;;		None
   796 ;; Return value:  Size  Location     Type
   797 ;;		None               void
   798 ;; Registers used:
   799 ;;		None
   800 ;; Tracked objects:
   801 ;;		On entry : 0/0
   802 ;;		On exit  : 0/0
   803 ;;		Unchanged: 0/0
   804 ;; Data sizes:     COMRAM   BANK0   BANK1   BANK2   BANK3   BANK4   BANK5   BANK6   BANK7
   805 ;;      Params:         0       0       0       0       0       0       0       0       0
   806 ;;      Locals:         0       0       0       0       0       0       0       0       0
   807 ;;      Temps:          0       0       0       0       0       0       0       0       0
   808 ;;      Totals:         0       0       0       0       0       0       0       0       0
   809 ;;Total ram usage:        0 bytes
   810 ;; Hardware stack levels used:    1
   811 ;; This function calls:
   812 ;;		Nothing
   813 ;; This function is called by:
   814 ;;		_oneToNine
   815 ;; This function uses a non-reentrant model
   816 ;;
   817                           
   818                           	psect	text11
   819  007E98                     __ptext11:
   820                           	opt stack 0
   821  007E98                     _nine:
   822                           	opt stack 27
   823                           
   824                           ;main.c: 227: LATB3 = 1;
   825                           
   826                           ;incstack = 0
   827  007E98  868A               	bsf	3978,3,c	;volatile
   828                           
   829                           ;main.c: 228: LATB4 = 0;
   830  007E9A  988A               	bcf	3978,4,c	;volatile
   831                           
   832                           ;main.c: 229: LATB5 = 0;
   833  007E9C  9A8A               	bcf	3978,5,c	;volatile
   834                           
   835                           ;main.c: 230: LATB6 = 1;
   836  007E9E  8C8A               	bsf	3978,6,c	;volatile
   837  007EA0  0012               	return	
   838  007EA2                     __end_of_nine:
   839                           	opt stack 0
   840                           
   841 ;; *************** function _four *****************
   842 ;; Defined at:
   843 ;;		line 191 in file "main.c"
   844 ;; Parameters:    Size  Location     Type
   845 ;;		None
   846 ;; Auto vars:     Size  Location     Type
   847 ;;		None
   848 ;; Return value:  Size  Location     Type
   849 ;;		None               void
   850 ;; Registers used:
   851 ;;		None
   852 ;; Tracked objects:
   853 ;;		On entry : 0/0
   854 ;;		On exit  : 0/0
   855 ;;		Unchanged: 0/0
   856 ;; Data sizes:     COMRAM   BANK0   BANK1   BANK2   BANK3   BANK4   BANK5   BANK6   BANK7
   857 ;;      Params:         0       0       0       0       0       0       0       0       0
   858 ;;      Locals:         0       0       0       0       0       0       0       0       0
   859 ;;      Temps:          0       0       0       0       0       0       0       0       0
   860 ;;      Totals:         0       0       0       0       0       0       0       0       0
   861 ;;Total ram usage:        0 bytes
   862 ;; Hardware stack levels used:    1
   863 ;; This function calls:
   864 ;;		Nothing
   865 ;; This function is called by:
   866 ;;		_oneToNine
   867 ;; This function uses a non-reentrant model
   868 ;;
   869                           
   870                           	psect	text12
   871  007E8E                     __ptext12:
   872                           	opt stack 0
   873  007E8E                     _four:
   874                           	opt stack 27
   875                           
   876                           ;main.c: 192: LATB3 = 0;
   877                           
   878                           ;incstack = 0
   879  007E8E  968A               	bcf	3978,3,c	;volatile
   880                           
   881                           ;main.c: 193: LATB4 = 0;
   882  007E90  988A               	bcf	3978,4,c	;volatile
   883                           
   884                           ;main.c: 194: LATB5 = 1;
   885  007E92  8A8A               	bsf	3978,5,c	;volatile
   886                           
   887                           ;main.c: 195: LATB6 = 0;
   888  007E94  9C8A               	bcf	3978,6,c	;volatile
   889  007E96  0012               	return	
   890  007E98                     __end_of_four:
   891                           	opt stack 0
   892                           
   893 ;; *************** function _five *****************
   894 ;; Defined at:
   895 ;;		line 198 in file "main.c"
   896 ;; Parameters:    Size  Location     Type
   897 ;;		None
   898 ;; Auto vars:     Size  Location     Type
   899 ;;		None
   900 ;; Return value:  Size  Location     Type
   901 ;;		None               void
   902 ;; Registers used:
   903 ;;		None
   904 ;; Tracked objects:
   905 ;;		On entry : 0/0
   906 ;;		On exit  : 0/0
   907 ;;		Unchanged: 0/0
   908 ;; Data sizes:     COMRAM   BANK0   BANK1   BANK2   BANK3   BANK4   BANK5   BANK6   BANK7
   909 ;;      Params:         0       0       0       0       0       0       0       0       0
   910 ;;      Locals:         0       0       0       0       0       0       0       0       0
   911 ;;      Temps:          0       0       0       0       0       0       0       0       0
   912 ;;      Totals:         0       0       0       0       0       0       0       0       0
   913 ;;Total ram usage:        0 bytes
   914 ;; Hardware stack levels used:    1
   915 ;; This function calls:
   916 ;;		Nothing
   917 ;; This function is called by:
   918 ;;		_oneToNine
   919 ;; This function uses a non-reentrant model
   920 ;;
   921                           
   922                           	psect	text13
   923  007E84                     __ptext13:
   924                           	opt stack 0
   925  007E84                     _five:
   926                           	opt stack 27
   927                           
   928                           ;main.c: 199: LATB3 = 1;
   929                           
   930                           ;incstack = 0
   931  007E84  868A               	bsf	3978,3,c	;volatile
   932                           
   933                           ;main.c: 200: LATB4 = 0;
   934  007E86  988A               	bcf	3978,4,c	;volatile
   935                           
   936                           ;main.c: 201: LATB5 = 1;
   937  007E88  8A8A               	bsf	3978,5,c	;volatile
   938                           
   939                           ;main.c: 202: LATB6 = 0;
   940  007E8A  9C8A               	bcf	3978,6,c	;volatile
   941  007E8C  0012               	return	
   942  007E8E                     __end_of_five:
   943                           	opt stack 0
   944                           
   945 ;; *************** function _eight *****************
   946 ;; Defined at:
   947 ;;		line 219 in file "main.c"
   948 ;; Parameters:    Size  Location     Type
   949 ;;		None
   950 ;; Auto vars:     Size  Location     Type
   951 ;;		None
   952 ;; Return value:  Size  Location     Type
   953 ;;		None               void
   954 ;; Registers used:
   955 ;;		None
   956 ;; Tracked objects:
   957 ;;		On entry : 0/0
   958 ;;		On exit  : 0/0
   959 ;;		Unchanged: 0/0
   960 ;; Data sizes:     COMRAM   BANK0   BANK1   BANK2   BANK3   BANK4   BANK5   BANK6   BANK7
   961 ;;      Params:         0       0       0       0       0       0       0       0       0
   962 ;;      Locals:         0       0       0       0       0       0       0       0       0
   963 ;;      Temps:          0       0       0       0       0       0       0       0       0
   964 ;;      Totals:         0       0       0       0       0       0       0       0       0
   965 ;;Total ram usage:        0 bytes
   966 ;; Hardware stack levels used:    1
   967 ;; This function calls:
   968 ;;		Nothing
   969 ;; This function is called by:
   970 ;;		_oneToNine
   971 ;; This function uses a non-reentrant model
   972 ;;
   973                           
   974                           	psect	text14
   975  007E7A                     __ptext14:
   976                           	opt stack 0
   977  007E7A                     _eight:
   978                           	opt stack 27
   979                           
   980                           ;main.c: 220: LATB3 = 0;
   981                           
   982                           ;incstack = 0
   983  007E7A  968A               	bcf	3978,3,c	;volatile
   984                           
   985                           ;main.c: 221: LATB4 = 0;
   986  007E7C  988A               	bcf	3978,4,c	;volatile
   987                           
   988                           ;main.c: 222: LATB5 = 0;
   989  007E7E  9A8A               	bcf	3978,5,c	;volatile
   990                           
   991                           ;main.c: 223: LATB6 = 1;
   992  007E80  8C8A               	bsf	3978,6,c	;volatile
   993  007E82  0012               	return	
   994  007E84                     __end_of_eight:
   995                           	opt stack 0
   996                           
   997 ;; *************** function _Delay1Second *****************
   998 ;; Defined at:
   999 ;;		line 241 in file "main.c"
  1000 ;; Parameters:    Size  Location     Type
  1001 ;;  interval        2    0[COMRAM] int 
  1002 ;; Auto vars:     Size  Location     Type
  1003 ;;		None
  1004 ;; Return value:  Size  Location     Type
  1005 ;;		None               void
  1006 ;; Registers used:
  1007 ;;		wreg, status,2, status,0
  1008 ;; Tracked objects:
  1009 ;;		On entry : 0/0
  1010 ;;		On exit  : 0/0
  1011 ;;		Unchanged: 0/0
  1012 ;; Data sizes:     COMRAM   BANK0   BANK1   BANK2   BANK3   BANK4   BANK5   BANK6   BANK7
  1013 ;;      Params:         2       0       0       0       0       0       0       0       0
  1014 ;;      Locals:         0       0       0       0       0       0       0       0       0
  1015 ;;      Temps:          1       0       0       0       0       0       0       0       0
  1016 ;;      Totals:         3       0       0       0       0       0       0       0       0
  1017 ;;Total ram usage:        3 bytes
  1018 ;; Hardware stack levels used:    1
  1019 ;; This function calls:
  1020 ;;		Nothing
  1021 ;; This function is called by:
  1022 ;;		_yallowLight
  1023 ;;		_oneToNine
  1024 ;; This function uses a non-reentrant model
  1025 ;;
  1026                           
  1027                           	psect	text15
  1028  007F3C                     __ptext15:
  1029                           	opt stack 0
  1030  007F3C                     _Delay1Second:
  1031                           	opt stack 27
  1032                           
  1033                           ;main.c: 243: for(i=0;i<interval;i++)
  1034                           
  1035                           ;incstack = 0
  1036  007F3C  0E00               	movlw	0
  1037  007F3E  6E0A               	movwf	_i+1,c
  1038  007F40  0E00               	movlw	0
  1039  007F42  6E09               	movwf	_i,c
  1040  007F44  D009               	goto	l106
  1041  007F46                     l687:
  1042                           
  1043                           ;main.c: 244: _delay((unsigned long)((10)*(1000000/4000.0)));
  1044  007F46  0E04               	movlw	4
  1045  007F48  6E03               	movwf	??_Delay1Second& (0+255),c
  1046  007F4A  0E3E               	movlw	62
  1047  007F4C                     u37:
  1048  007F4C  2EE8               	decfsz	wreg,f,c
  1049  007F4E  D7FE               	goto	u37
  1050  007F50  2E03               	decfsz	??_Delay1Second& (0+255),f,c
  1051  007F52  D7FC               	goto	u37
  1052  007F54  4A09               	infsnz	_i,f,c
  1053  007F56  2A0A               	incf	_i+1,f,c
  1054  007F58                     l106:
  1055  007F58  500A               	movf	_i+1,w,c
  1056  007F5A  0A80               	xorlw	128
  1057  007F5C  6E03               	movwf	??_Delay1Second& (0+255),c
  1058  007F5E  5001               	movf	Delay1Second@interval,w,c
  1059  007F60  5C09               	subwf	_i,w,c
  1060  007F62  5002               	movf	Delay1Second@interval+1,w,c
  1061  007F64  0A80               	xorlw	128
  1062  007F66  5803               	subwfb	??_Delay1Second& (0+255),w,c
  1063  007F68  B0D8               	btfsc	status,0,c
  1064  007F6A  0012               	return	
  1065  007F6C  D7EC               	goto	l687
  1066  007F6E                     __end_of_Delay1Second:
  1067                           	opt stack 0
  1068  0000                     wreg	equ	0xFE8
  1069                           status	equ	0xFD8
  1070                           wreg	equ	0xFE8
  1071                           status	equ	0xFD8
  1072                           
  1073                           	psect	rparam
  1074  0000                     wreg	equ	0xFE8
  1075                           status	equ	0xFD8


Data Sizes:
    Strings     0
    Constant    0
    Data        0
    BSS         2
    Persistent  0
    Stack       0

Auto Spaces:
    Space          Size  Autos    Used
    COMRAM           95      8      10
    BANK0           160      0       0
    BANK1           256      0       0
    BANK2           256      0       0
    BANK3           256      0       0
    BANK4           256      0       0
    BANK5           256      0       0
    BANK6           256      0       0
    BANK7           256      0       0

Pointer List with Targets:

    None.

Critical Paths under _main in COMRAM

    _yallowLight->_Delay1Second
    _oneToNine->_Delay1Second

Critical Paths under _main in BANK0

    None.

Critical Paths under _main in BANK1

    None.

Critical Paths under _main in BANK2

    None.

Critical Paths under _main in BANK3

    None.

Critical Paths under _main in BANK4

    None.

Critical Paths under _main in BANK5

    None.

Critical Paths under _main in BANK6

    None.

Critical Paths under _main in BANK7

    None.

Call Graph Tables:

 ---------------------------------------------------------------------------------
 (Depth) Function   	        Calls       Base Space   Used Autos Params    Refs
 ---------------------------------------------------------------------------------
 (0) _main                                                 5     0      5    1420
                                              3 COMRAM     5     0      5
                            _roadOne
                            _roadTwo
                        _yallowLight
 ---------------------------------------------------------------------------------
 (1) _yallowLight                                          0     0      0     710
                       _Delay1Second
                            _roadOne
                               _zero
 ---------------------------------------------------------------------------------
 (2) _zero                                                 0     0      0       0
 ---------------------------------------------------------------------------------
 (2) _roadOne                                              0     0      0     355
                          _oneToNine
 ---------------------------------------------------------------------------------
 (1) _roadTwo                                              0     0      0     355
                          _oneToNine
 ---------------------------------------------------------------------------------
 (3) _oneToNine                                            0     0      0     355
                       _Delay1Second
                              _eight
                               _five
                               _four
                               _nine
                                _one
                              _seven
                                _six
                              _three
                                _two
 ---------------------------------------------------------------------------------
 (4) _two                                                  0     0      0       0
 ---------------------------------------------------------------------------------
 (4) _three                                                0     0      0       0
 ---------------------------------------------------------------------------------
 (4) _six                                                  0     0      0       0
 ---------------------------------------------------------------------------------
 (4) _seven                                                0     0      0       0
 ---------------------------------------------------------------------------------
 (4) _one                                                  0     0      0       0
 ---------------------------------------------------------------------------------
 (4) _nine                                                 0     0      0       0
 ---------------------------------------------------------------------------------
 (4) _four                                                 0     0      0       0
 ---------------------------------------------------------------------------------
 (4) _five                                                 0     0      0       0
 ---------------------------------------------------------------------------------
 (4) _eight                                                0     0      0       0
 ---------------------------------------------------------------------------------
 (4) _Delay1Second                                         3     1      2     355
                                              0 COMRAM     3     1      2
 ---------------------------------------------------------------------------------
 Estimated maximum stack depth 4
 ---------------------------------------------------------------------------------

 Call Graph Graphs:

 _main (ROOT)
   _roadOne
     _oneToNine
       _Delay1Second
       _eight
       _five
       _four
       _nine
       _one
       _seven
       _six
       _three
       _two
   _roadTwo
     _oneToNine
       _Delay1Second
       _eight
       _five
       _four
       _nine
       _one
       _seven
       _six
       _three
       _two
   _yallowLight
     _Delay1Second
     _roadOne
       _oneToNine
         _Delay1Second
         _eight
         _five
         _four
         _nine
         _one
         _seven
         _six
         _three
         _two
     _zero

 Address spaces:
Name               Size   Autos  Total    Cost      Usage
BIGRAM             7FF      0       0      21        0.0%
EEDATA             100      0       0       0        0.0%
BITBANK7           100      0       0      18        0.0%
BANK7              100      0       0      19        0.0%
BITBANK6           100      0       0      16        0.0%
BANK6              100      0       0      17        0.0%
BITBANK5           100      0       0      14        0.0%
BANK5              100      0       0      15        0.0%
BITBANK4           100      0       0      12        0.0%
BANK4              100      0       0      13        0.0%
BITBANK3           100      0       0      10        0.0%
BANK3              100      0       0      11        0.0%
BITBANK2           100      0       0       8        0.0%
BANK2              100      0       0       9        0.0%
BITBANK1           100      0       0       6        0.0%
BANK1              100      0       0       7        0.0%
BITBANK0            A0      0       0       4        0.0%
BANK0               A0      0       0       5        0.0%
BITCOMRAM           5F      0       0       0        0.0%
COMRAM              5F      8       A       1       10.5%
BITSFR               0      0       0      40        0.0%
SFR                  0      0       0      40        0.0%
STACK                0      0       0       2        0.0%
NULL                 0      0       0       0        0.0%
ABS                  0      0       A      20        0.0%
DATA                 0      0       A       3        0.0%
CODE                 0      0       0       0        0.0%


Microchip Technology PIC18 Macro Assembler V1.32 build 58300 
Symbol Table                                                                                   Fri Sep 05 00:33:00 2014

                      _i 0009                       u37 7F4C              __CFG_BOR$ON 000000  
            __CFG_BORV$3 000000             __CFG_CP0$OFF 000000             __CFG_CP1$OFF 000000  
           __CFG_CP2$OFF 000000             __CFG_CP3$OFF 000000              __CFG_LVP$ON 000000  
            __CFG_WDT$ON 000000                      l106 7F58                      l761 7F2A  
                    l687 7F46             __CFG_CPB$OFF 000000             __CFG_CPD$OFF 000000  
                    _one 7EA2                      _six 7EB6                      _two 7ECA  
                    wreg 000FE8                     ?_one 0001                     ?_six 0001  
                   ?_two 0001                     _five 7E84                     _main 7F18  
                   _four 7E8E                     _nine 7E98                     _zero 7EE8  
                   start 0000            __CFG_IESO$OFF 000000                    ??_one 0001  
                  ??_six 0001                    ??_two 0001            __CFG_PLLDIV$1 000000  
         __CFG_CCP2MX$ON 000000                    ?_five 0001                    ?_main 0004  
                  ?_four 0001                    ?_nine 0001                    ?_zero 0001  
                  _LATB0 007C50                    _LATB1 007C51                    _LATB2 007C52  
                  _LATB3 007C53                    _LATB4 007C54                    _LATB5 007C55  
                  _LATB6 007C56            __CFG_USBDIV$1 000000            __CFG_PWRT$OFF 000000  
          __CFG_WRT0$OFF 000000            __CFG_WRT1$OFF 000000            __CFG_WRT2$OFF 000000  
          __CFG_WRT3$OFF 000000           __CFG_EBTR0$OFF 000000           __CFG_FCMEN$OFF 000000  
         __CFG_EBTR1$OFF 000000           __CFG_EBTR2$OFF 000000           __CFG_EBTR3$OFF 000000  
          __CFG_WRTB$OFF 000000            __CFG_WRTC$OFF 000000            __CFG_WRTD$OFF 000000  
         __CFG_EBTRB$OFF 000000                    _eight 7E7A                    _seven 7EAC  
                  _three 7EC0          __end_of_roadOne 7EE8          __end_of_roadTwo 7EDE  
                  status 000FD8           __CFG_ICPRT$OFF 000000    __size_of_Delay1Second 0032  
         __CFG_PBADEN$ON 000000           __CFG_MCLRE$OFF 000000          __initialization 7EF2  
           __end_of_five 7E8E             __end_of_main 7F3C             __end_of_four 7E98  
           __end_of_nine 7EA2             __end_of_zero 7EF2                   ??_five 0001  
                 ??_main 0009                   ??_four 0001                   ??_nine 0001  
                 ??_zero 0001            __activetblptr 000000                   ?_eight 0001  
           _Delay1Second 7F3C                   ?_seven 0001                   ?_three 0001  
         __CFG_XINST$OFF 000000           __CFG_STVREN$ON 000000                ??_roadOne 0004  
              ??_roadTwo 0004          __CFG_FOSC$EC_EC 000000               __accesstop 0060  
__end_of__initialization 7EF6             ?_yallowLight 0001           __pcstackCOMRAM 0001  
          __end_of_eight 7E84            __end_of_seven 7EB6            __end_of_three 7ECA  
                ??_eight 0001                  ??_seven 0001                  ??_three 0001  
     __size_of_oneToNine 0092          __CFG_VREGEN$OFF 000000                  __Hparam 0000  
                __Lparam 0000                  __pcinit 7EF2                  __ramtop 0800  
                __ptext0 7F18                  __ptext1 7EFC                  __ptext2 7EE8  
                __ptext3 7EDE                  __ptext4 7ED4                  __ptext5 7F6E  
                __ptext6 7ECA                  __ptext7 7EC0                  __ptext8 7EB6  
                __ptext9 7EAC             __size_of_one 000A             __size_of_six 000A  
           __size_of_two 000A                  _roadOne 7EDE        __end_of_oneToNine 8000  
                _roadTwo 7ED4     end_of_initialization 7EF6     __size_of_yallowLight 001C  
              _PORTAbits 000F80                _TRISAbits 000F92                _TRISBbits 000F93  
    start_initialization 7EF2              __end_of_one 7EAC              __end_of_six 7EC0  
            __end_of_two 7ED4         __CFG_LPT1OSC$OFF 000000              __pbssCOMRAM 0009  
               ?_roadOne 0001                 ?_roadTwo 0001           __size_of_eight 000A  
          ?_Delay1Second 0001           __size_of_seven 000A           __size_of_three 000A  
              _oneToNine 7F6E         __CFG_WDTPS$32768 000000           ??_Delay1Second 0003  
             ?_oneToNine 0001                 __Hrparam 0000            ??_yallowLight 0004  
               __Lrparam 0000         __size_of_roadOne 000A         __size_of_roadTwo 000A  
               __ptext10 7EA2                 __ptext11 7E98                 __ptext12 7E8E  
               __ptext13 7E84                 __ptext14 7E7A                 __ptext15 7F3C  
          __size_of_five 000A            __size_of_main 0024            __size_of_four 000A  
          __size_of_nine 000A            __size_of_zero 000A                 main@argc 0004  
               main@argv 0006      __end_of_yallowLight 7F18    __CFG_CPUDIV$OSC1_PLL2 000000  
            ??_oneToNine 0004     Delay1Second@interval 0001     __end_of_Delay1Second 7F6E  
            _yallowLight 7EFC  
